; Function Attrs: nounwind uwtable
define i32 @dt_control_get_mouse_over_id() local_unnamed_addr #0 {
  %1 = load ptr, ptr getelementptr inbounds nuw (i8, ptr @darktable, i64 88), align 8, !tbaa !107
  %2 = getelementptr inbounds nuw i8, ptr %1, i64 9656
  %3 = tail call i32 @pthread_mutex_lock(ptr noundef nonnull %2) #13
  %4 = getelementptr inbounds nuw i8, ptr %1, i64 932
  %5 = load i32, ptr %4, align 4, !tbaa !105
  %6 = tail call i32 @pthread_mutex_unlock(ptr noundef nonnull %2) #13
  ret i32 %5
}